target datalayout = "e-m:e-p270:32:32-p271:32:32-p272:64:64-i64:64-i128:128-f80:128-n8:16:32:64-S128"
target triple = "x86_64-pc-linux-gnu"

%"class.OpenSubdiv::v3_6_0::Vtr::internal::Level" = type { i32, i32, i32, i32, i32, i32, %"class.std::vector", %"class.std::vector", %"class.std::vector", %"class.std::vector.0", %"class.std::vector", %"class.std::vector", %"class.std::vector", %"class.std::vector.5", %"class.std::vector.10", %"class.std::vector.15", %"class.std::vector", %"class.std::vector", %"class.std::vector.5", %"class.std::vector", %"class.std::vector", %"class.std::vector.5", %"class.std::vector.10", %"class.std::vector.20", %"class.std::vector.25" }
%"class.std::vector.0" = type { %"struct.std::_Vector_base.1" }
%"struct.std::_Vector_base.1" = type { %"struct.std::_Vector_base<OpenSubdiv::v3_6_0::Vtr::internal::Level::FTag, std::allocator<OpenSubdiv::v3_6_0::Vtr::internal::Level::FTag>>::_Vector_impl" }
%"struct.std::_Vector_base<OpenSubdiv::v3_6_0::Vtr::internal::Level::FTag, std::allocator<OpenSubdiv::v3_6_0::Vtr::internal::Level::FTag>>::_Vector_impl" = type { %"struct.std::_Vector_base<OpenSubdiv::v3_6_0::Vtr::internal::Level::FTag, std::allocator<OpenSubdiv::v3_6_0::Vtr::internal::Level::FTag>>::_Vector_impl_data" }
%"struct.std::_Vector_base<OpenSubdiv::v3_6_0::Vtr::internal::Level::FTag, std::allocator<OpenSubdiv::v3_6_0::Vtr::internal::Level::FTag>>::_Vector_impl_data" = type { ptr, ptr, ptr }
%"class.std::vector.15" = type { %"struct.std::_Vector_base.16" }
%"struct.std::_Vector_base.16" = type { %"struct.std::_Vector_base<OpenSubdiv::v3_6_0::Vtr::internal::Level::ETag, std::allocator<OpenSubdiv::v3_6_0::Vtr::internal::Level::ETag>>::_Vector_impl" }
%"struct.std::_Vector_base<OpenSubdiv::v3_6_0::Vtr::internal::Level::ETag, std::allocator<OpenSubdiv::v3_6_0::Vtr::internal::Level::ETag>>::_Vector_impl" = type { %"struct.std::_Vector_base<OpenSubdiv::v3_6_0::Vtr::internal::Level::ETag, std::allocator<OpenSubdiv::v3_6_0::Vtr::internal::Level::ETag>>::_Vector_impl_data" }
%"struct.std::_Vector_base<OpenSubdiv::v3_6_0::Vtr::internal::Level::ETag, std::allocator<OpenSubdiv::v3_6_0::Vtr::internal::Level::ETag>>::_Vector_impl_data" = type { ptr, ptr, ptr }
%"class.std::vector" = type { %"struct.std::_Vector_base" }
%"struct.std::_Vector_base" = type { %"struct.std::_Vector_base<int, std::allocator<int>>::_Vector_impl" }
%"struct.std::_Vector_base<int, std::allocator<int>>::_Vector_impl" = type { %"struct.std::_Vector_base<int, std::allocator<int>>::_Vector_impl_data" }
%"struct.std::_Vector_base<int, std::allocator<int>>::_Vector_impl_data" = type { ptr, ptr, ptr }
%"class.std::vector.5" = type { %"struct.std::_Vector_base.6" }
%"struct.std::_Vector_base.6" = type { %"struct.std::_Vector_base<unsigned short, std::allocator<unsigned short>>::_Vector_impl" }
%"struct.std::_Vector_base<unsigned short, std::allocator<unsigned short>>::_Vector_impl" = type { %"struct.std::_Vector_base<unsigned short, std::allocator<unsigned short>>::_Vector_impl_data" }
%"struct.std::_Vector_base<unsigned short, std::allocator<unsigned short>>::_Vector_impl_data" = type { ptr, ptr, ptr }
%"class.std::vector.10" = type { %"struct.std::_Vector_base.11" }
%"struct.std::_Vector_base.11" = type { %"struct.std::_Vector_base<float, std::allocator<float>>::_Vector_impl" }
%"struct.std::_Vector_base<float, std::allocator<float>>::_Vector_impl" = type { %"struct.std::_Vector_base<float, std::allocator<float>>::_Vector_impl_data" }
%"struct.std::_Vector_base<float, std::allocator<float>>::_Vector_impl_data" = type { ptr, ptr, ptr }
%"class.std::vector.20" = type { %"struct.std::_Vector_base.21" }
%"struct.std::_Vector_base.21" = type { %"struct.std::_Vector_base<OpenSubdiv::v3_6_0::Vtr::internal::Level::VTag, std::allocator<OpenSubdiv::v3_6_0::Vtr::internal::Level::VTag>>::_Vector_impl" }
%"struct.std::_Vector_base<OpenSubdiv::v3_6_0::Vtr::internal::Level::VTag, std::allocator<OpenSubdiv::v3_6_0::Vtr::internal::Level::VTag>>::_Vector_impl" = type { %"struct.std::_Vector_base<OpenSubdiv::v3_6_0::Vtr::internal::Level::VTag, std::allocator<OpenSubdiv::v3_6_0::Vtr::internal::Level::VTag>>::_Vector_impl_data" }
%"struct.std::_Vector_base<OpenSubdiv::v3_6_0::Vtr::internal::Level::VTag, std::allocator<OpenSubdiv::v3_6_0::Vtr::internal::Level::VTag>>::_Vector_impl_data" = type { ptr, ptr, ptr }
%"class.std::vector.25" = type { %"struct.std::_Vector_base.26" }
%"struct.std::_Vector_base.26" = type { %"struct.std::_Vector_base<OpenSubdiv::v3_6_0::Vtr::internal::FVarLevel *, std::allocator<OpenSubdiv::v3_6_0::Vtr::internal::FVarLevel *>>::_Vector_impl" }
%"struct.std::_Vector_base<OpenSubdiv::v3_6_0::Vtr::internal::FVarLevel *, std::allocator<OpenSubdiv::v3_6_0::Vtr::internal::FVarLevel *>>::_Vector_impl" = type { %"struct.std::_Vector_base<OpenSubdiv::v3_6_0::Vtr::internal::FVarLevel *, std::allocator<OpenSubdiv::v3_6_0::Vtr::internal::FVarLevel *>>::_Vector_impl_data" }
%"struct.std::_Vector_base<OpenSubdiv::v3_6_0::Vtr::internal::FVarLevel *, std::allocator<OpenSubdiv::v3_6_0::Vtr::internal::FVarLevel *>>::_Vector_impl_data" = type { ptr, ptr, ptr }
%"class.OpenSubdiv::v3_6_0::Sdc::Options" = type { i8, i8, i8, i8 }
%"struct.OpenSubdiv::v3_6_0::Vtr::internal::FVarLevel::ValueTag" = type { i8 }
%"class.OpenSubdiv::v3_6_0::Vtr::internal::FVarLevel" = type { ptr, %"class.OpenSubdiv::v3_6_0::Sdc::Options", i8, i8, i8, i32, %"class.std::vector", %"class.std::vector.30", %"class.std::vector.5", %"class.std::vector", %"class.std::vector.5", %"class.std::vector", %"class.std::vector.35", %"class.std::vector.40" }
%"class.std::vector.30" = type { %"struct.std::_Vector_base.31" }
%"struct.std::_Vector_base.31" = type { %"struct.std::_Vector_base<OpenSubdiv::v3_6_0::Vtr::internal::FVarLevel::ETag, std::allocator<OpenSubdiv::v3_6_0::Vtr::internal::FVarLevel::ETag>>::_Vector_impl" }
%"struct.std::_Vector_base<OpenSubdiv::v3_6_0::Vtr::internal::FVarLevel::ETag, std::allocator<OpenSubdiv::v3_6_0::Vtr::internal::FVarLevel::ETag>>::_Vector_impl" = type { %"struct.std::_Vector_base<OpenSubdiv::v3_6_0::Vtr::internal::FVarLevel::ETag, std::allocator<OpenSubdiv::v3_6_0::Vtr::internal::FVarLevel::ETag>>::_Vector_impl_data" }
%"struct.std::_Vector_base<OpenSubdiv::v3_6_0::Vtr::internal::FVarLevel::ETag, std::allocator<OpenSubdiv::v3_6_0::Vtr::internal::FVarLevel::ETag>>::_Vector_impl_data" = type { ptr, ptr, ptr }
%"class.std::vector.35" = type { %"struct.std::_Vector_base.36" }
%"struct.std::_Vector_base.36" = type { %"struct.std::_Vector_base<OpenSubdiv::v3_6_0::Vtr::internal::FVarLevel::ValueTag, std::allocator<OpenSubdiv::v3_6_0::Vtr::internal::FVarLevel::ValueTag>>::_Vector_impl" }
%"struct.std::_Vector_base<OpenSubdiv::v3_6_0::Vtr::internal::FVarLevel::ValueTag, std::allocator<OpenSubdiv::v3_6_0::Vtr::internal::FVarLevel::ValueTag>>::_Vector_impl" = type { %"struct.std::_Vector_base<OpenSubdiv::v3_6_0::Vtr::internal::FVarLevel::ValueTag, std::allocator<OpenSubdiv::v3_6_0::Vtr::internal::FVarLevel::ValueTag>>::_Vector_impl_data" }
%"struct.std::_Vector_base<OpenSubdiv::v3_6_0::Vtr::internal::FVarLevel::ValueTag, std::allocator<OpenSubdiv::v3_6_0::Vtr::internal::FVarLevel::ValueTag>>::_Vector_impl_data" = type { ptr, ptr, ptr }
%"class.std::vector.40" = type { %"struct.std::_Vector_base.41" }
%"struct.std::_Vector_base.41" = type { %"struct.std::_Vector_base<OpenSubdiv::v3_6_0::Vtr::internal::FVarLevel::CreaseEndPair, std::allocator<OpenSubdiv::v3_6_0::Vtr::internal::FVarLevel::CreaseEndPair>>::_Vector_impl" }
%"struct.std::_Vector_base<OpenSubdiv::v3_6_0::Vtr::internal::FVarLevel::CreaseEndPair, std::allocator<OpenSubdiv::v3_6_0::Vtr::internal::FVarLevel::CreaseEndPair>>::_Vector_impl" = type { %"struct.std::_Vector_base<OpenSubdiv::v3_6_0::Vtr::internal::FVarLevel::CreaseEndPair, std::allocator<OpenSubdiv::v3_6_0::Vtr::internal::FVarLevel::CreaseEndPair>>::_Vector_impl_data" }
%"struct.std::_Vector_base<OpenSubdiv::v3_6_0::Vtr::internal::FVarLevel::CreaseEndPair, std::allocator<OpenSubdiv::v3_6_0::Vtr::internal::FVarLevel::CreaseEndPair>>::_Vector_impl_data" = type { ptr, ptr, ptr }

; Function Attrs: mustprogress nounwind uwtable
define linkonce_odr noundef nonnull align 1 dereferenceable(1) ptr @_ZNKSt6vectorIN10OpenSubdiv6v3_6_03Vtr8internal9FVarLevel8ValueTagESaIS5_EEixEm(ptr noundef nonnull align 8 dereferenceable(24) %0, i64 noundef %1) #0 comdat align 2 {
  %3 = alloca ptr, align 8
  %4 = alloca i64, align 8
  store ptr %0, ptr %3, align 8
  store i64 %1, ptr %4, align 8
  %5 = load ptr, ptr %3, align 8
  %6 = getelementptr inbounds nuw %"struct.std::_Vector_base.36", ptr %5, i32 0, i32 0
  %7 = getelementptr inbounds nuw %"struct.std::_Vector_base<OpenSubdiv::v3_6_0::Vtr::internal::FVarLevel::ValueTag, std::allocator<OpenSubdiv::v3_6_0::Vtr::internal::FVarLevel::ValueTag>>::_Vector_impl_data", ptr %6, i32 0, i32 0
  %8 = load ptr, ptr %7, align 8
  %9 = load i64, ptr %4, align 8
  %10 = getelementptr inbounds %"struct.OpenSubdiv::v3_6_0::Vtr::internal::FVarLevel::ValueTag", ptr %8, i64 %9
  ret ptr %10
}

; Function Attrs: mustprogress nounwind uwtable
define linkonce_odr i8 @_ZNK10OpenSubdiv6v3_6_03Vtr8internal9FVarLevel11getValueTagEi(ptr noundef nonnull align 8 dereferenceable(216) %0, i32 noundef %1) #0 comdat align 2 {
  %3 = alloca %"struct.OpenSubdiv::v3_6_0::Vtr::internal::FVarLevel::ValueTag", align 1
  %4 = alloca ptr, align 8
  %5 = alloca i32, align 4
  store ptr %0, ptr %4, align 8
  store i32 %1, ptr %5, align 4
  %6 = load ptr, ptr %4, align 8
  %7 = getelementptr inbounds nuw %"class.OpenSubdiv::v3_6_0::Vtr::internal::FVarLevel", ptr %6, i32 0, i32 12
  %8 = load i32, ptr %5, align 4
  %9 = sext i32 %8 to i64
  %10 = call noundef nonnull align 1 dereferenceable(1) ptr @_ZNKSt6vectorIN10OpenSubdiv6v3_6_03Vtr8internal9FVarLevel8ValueTagESaIS5_EEixEm(ptr noundef nonnull align 8 dereferenceable(24) %7, i64 noundef %9) #12
  call void @llvm.memcpy.p0.p0.i64(ptr align 1 %3, ptr align 1 %10, i64 1, i1 false)
  %11 = getelementptr inbounds nuw %"struct.OpenSubdiv::v3_6_0::Vtr::internal::FVarLevel::ValueTag", ptr %3, i32 0, i32 0
  %12 = load i8, ptr %11, align 1
  ret i8 %12
}

; Function Attrs: mustprogress nounwind uwtable
define linkonce_odr noundef nonnull align 4 dereferenceable(4) ptr @_ZNKSt6vectorIiSaIiEEixEm(ptr noundef nonnull align 8 dereferenceable(24) %0, i64 noundef %1) #0 comdat align 2 {
  %3 = alloca ptr, align 8
  %4 = alloca i64, align 8
  store ptr %0, ptr %3, align 8
  store i64 %1, ptr %4, align 8
  %5 = load ptr, ptr %3, align 8
  %6 = getelementptr inbounds nuw %"struct.std::_Vector_base", ptr %5, i32 0, i32 0
  %7 = getelementptr inbounds nuw %"struct.std::_Vector_base<int, std::allocator<int>>::_Vector_impl_data", ptr %6, i32 0, i32 0
  %8 = load ptr, ptr %7, align 8
  %9 = load i64, ptr %4, align 8
  %10 = getelementptr inbounds i32, ptr %8, i64 %9
  ret ptr %10
}

; Function Attrs: mustprogress nounwind uwtable
define linkonce_odr noundef nonnull align 8 dereferenceable(8) ptr @_ZNKSt6vectorIPN10OpenSubdiv6v3_6_03Vtr8internal9FVarLevelESaIS5_EEixEm(ptr noundef nonnull align 8 dereferenceable(24) %0, i64 noundef %1) #0 comdat align 2 {
  %3 = alloca ptr, align 8
  %4 = alloca i64, align 8
  store ptr %0, ptr %3, align 8
  store i64 %1, ptr %4, align 8
  %5 = load ptr, ptr %3, align 8
  %6 = getelementptr inbounds nuw %"struct.std::_Vector_base.26", ptr %5, i32 0, i32 0
  %7 = getelementptr inbounds nuw %"struct.std::_Vector_base<OpenSubdiv::v3_6_0::Vtr::internal::FVarLevel *, std::allocator<OpenSubdiv::v3_6_0::Vtr::internal::FVarLevel *>>::_Vector_impl_data", ptr %6, i32 0, i32 0
  %8 = load ptr, ptr %7, align 8
  %9 = load i64, ptr %4, align 8
  %10 = getelementptr inbounds ptr, ptr %8, i64 %9
  ret ptr %10
}

; Function Attrs: mustprogress uwtable
define linkonce_odr noundef zeroext i1 @_ZNK10OpenSubdiv6v3_6_03Vtr8internal9FVarLevel20valueTopologyMatchesEi(ptr noundef nonnull align 8 dereferenceable(216) %0, i32 noundef %1) #3 comdat align 2 {
  %3 = alloca ptr, align 8
  %4 = alloca i32, align 4
  %5 = alloca %"struct.OpenSubdiv::v3_6_0::Vtr::internal::FVarLevel::ValueTag", align 1
  store ptr %0, ptr %3, align 8
  store i32 %1, ptr %4, align 4
  %6 = load ptr, ptr %3, align 8
  %7 = load i32, ptr %4, align 4
  %8 = call i8 @_ZNK10OpenSubdiv6v3_6_03Vtr8internal9FVarLevel11getValueTagEi(ptr noundef nonnull align 8 dereferenceable(216) %6, i32 noundef %7)
  %9 = getelementptr inbounds nuw %"struct.OpenSubdiv::v3_6_0::Vtr::internal::FVarLevel::ValueTag", ptr %5, i32 0, i32 0
  store i8 %8, ptr %9, align 1
  %10 = load i8, ptr %5, align 1
  %11 = and i8 %10, 1
  %12 = icmp ne i8 %11, 0
  %13 = xor i1 %12, true
  ret i1 %13
}

; Function Attrs: mustprogress nounwind uwtable
define linkonce_odr noundef i32 @_ZNK10OpenSubdiv6v3_6_03Vtr8internal9FVarLevel20getVertexValueOffsetEit(ptr noundef nonnull align 8 dereferenceable(216) %0, i32 noundef %1, i16 noundef zeroext %2) #0 comdat align 2 {
  %4 = alloca ptr, align 8
  %5 = alloca i32, align 4
  %6 = alloca i16, align 2
  store ptr %0, ptr %4, align 8
  store i32 %1, ptr %5, align 4
  store i16 %2, ptr %6, align 2
  %7 = load ptr, ptr %4, align 8
  %8 = getelementptr inbounds nuw %"class.OpenSubdiv::v3_6_0::Vtr::internal::FVarLevel", ptr %7, i32 0, i32 9
  %9 = load i32, ptr %5, align 4
  %10 = sext i32 %9 to i64
  %11 = call noundef nonnull align 4 dereferenceable(4) ptr @_ZNKSt6vectorIiSaIiEEixEm(ptr noundef nonnull align 8 dereferenceable(24) %8, i64 noundef %10) #12
  %12 = load i32, ptr %11, align 4
  %13 = load i16, ptr %6, align 2
  %14 = zext i16 %13 to i32
  %15 = add nsw i32 %12, %14
  ret i32 %15
}

; Function Attrs: mustprogress nounwind uwtable
define linkonce_odr noundef nonnull align 8 dereferenceable(216) ptr @_ZNK10OpenSubdiv6v3_6_03Vtr8internal5Level12getFVarLevelEi(ptr noundef nonnull align 8 dereferenceable(480) %0, i32 noundef %1) #0 comdat align 2 {
  %3 = alloca ptr, align 8
  %4 = alloca i32, align 4
  store ptr %0, ptr %3, align 8
  store i32 %1, ptr %4, align 4
  %5 = load ptr, ptr %3, align 8
  %6 = getelementptr inbounds nuw %"class.OpenSubdiv::v3_6_0::Vtr::internal::Level", ptr %5, i32 0, i32 24
  %7 = load i32, ptr %4, align 4
  %8 = sext i32 %7 to i64
  %9 = call noundef nonnull align 8 dereferenceable(8) ptr @_ZNKSt6vectorIPN10OpenSubdiv6v3_6_03Vtr8internal9FVarLevelESaIS5_EEixEm(ptr noundef nonnull align 8 dereferenceable(24) %6, i64 noundef %8) #12
  %10 = load ptr, ptr %9, align 8
  ret ptr %10
}

; Function Attrs: mustprogress uwtable
define noundef zeroext i1 @_ZNK10OpenSubdiv6v3_6_03Vtr8internal5Level27doesVertexFVarTopologyMatchEii(ptr noundef nonnull align 8 dereferenceable(480) %0, i32 noundef %1, i32 noundef %2) #3 align 2 {
  %4 = alloca ptr, align 8
  %5 = alloca i32, align 4
  %6 = alloca i32, align 4
  store ptr %0, ptr %4, align 8
  store i32 %1, ptr %5, align 4
  store i32 %2, ptr %6, align 4
  %7 = load ptr, ptr %4, align 8
  %8 = load i32, ptr %6, align 4
  %9 = call noundef nonnull align 8 dereferenceable(216) ptr @_ZNK10OpenSubdiv6v3_6_03Vtr8internal5Level12getFVarLevelEi(ptr noundef nonnull align 8 dereferenceable(480) %7, i32 noundef %8)
  %10 = load i32, ptr %6, align 4
  %11 = call noundef nonnull align 8 dereferenceable(216) ptr @_ZNK10OpenSubdiv6v3_6_03Vtr8internal5Level12getFVarLevelEi(ptr noundef nonnull align 8 dereferenceable(480) %7, i32 noundef %10)
  %12 = load i32, ptr %5, align 4
  %13 = call noundef i32 @_ZNK10OpenSubdiv6v3_6_03Vtr8internal9FVarLevel20getVertexValueOffsetEit(ptr noundef nonnull align 8 dereferenceable(216) %11, i32 noundef %12, i16 noundef zeroext 0)
  %14 = call noundef zeroext i1 @_ZNK10OpenSubdiv6v3_6_03Vtr8internal9FVarLevel20valueTopologyMatchesEi(ptr noundef nonnull align 8 dereferenceable(216) %9, i32 noundef %13)
  ret i1 %14
}