; Function Attrs: mustprogress nofree norecurse nosync nounwind willreturn memory(read, inaccessiblemem: none) uwtable
define noundef zeroext i1 @_ZNK10OpenSubdiv6v3_6_03Vtr8internal5Level27doesVertexFVarTopologyMatchEii(ptr noundef nonnull readonly align 8 captures(none) dereferenceable(480) %0, i32 noundef %1, i32 noundef %2) local_unnamed_addr #13 align 2 {
  %4 = getelementptr inbounds nuw i8, ptr %0, i64 456
  %5 = sext i32 %2 to i64
  %6 = load ptr, ptr %4, align 8
  %7 = getelementptr inbounds ptr, ptr %6, i64 %5
  %8 = load ptr, ptr %7, align 8
  %9 = getelementptr inbounds nuw i8, ptr %8, i64 96
  %10 = sext i32 %1 to i64
  %11 = load ptr, ptr %9, align 8
  %12 = getelementptr inbounds i32, ptr %11, i64 %10
  %13 = load i32, ptr %12, align 4
  %14 = getelementptr inbounds nuw i8, ptr %8, i64 168
  %15 = sext i32 %13 to i64
  %16 = load ptr, ptr %14, align 8
  %17 = getelementptr inbounds %"struct.OpenSubdiv::v3_6_0::Vtr::internal::FVarLevel::ValueTag", ptr %16, i64 %15
  %.sroa.0.0.copyload.i.i = load i8, ptr %17, align 1
  %18 = and i8 %.sroa.0.0.copyload.i.i, 1
  %.not.i = icmp eq i8 %18, 0
  ret i1 %.not.i
}